; ModuleID = 'source-C-CXX/56/62.c'
source_filename = "source-C-CXX/56/62.c"
target datalayout = "e-m:e-p270:32:32-p271:32:32-p272:64:64-i64:64-f80:128-n8:16:32:64-S128"
target triple = "x86_64-pc-linux-gnu"

@.str = private unnamed_addr constant [4 x i8] c"%d\0A\00", align 1

; Function Attrs: nounwind sspstrong uwtable
define dso_local void @main() local_unnamed_addr #0 {
  %1 = alloca [50 x [15 x i8]], align 16
  %2 = alloca i32, align 4
  %3 = getelementptr inbounds [50 x [15 x i8]], [50 x [15 x i8]]* %1, i64 0, i64 0, i64 0
  call void @llvm.lifetime.start.p0i8(i64 750, i8* nonnull %3) #6
  %4 = bitcast i32* %2 to i8*
  call void @llvm.lifetime.start.p0i8(i64 4, i8* nonnull %4) #6
  %5 = call i32 (i8*, ...) @__isoc99_scanf(i8* getelementptr inbounds ([4 x i8], [4 x i8]* @.str, i64 0, i64 0), i32* nonnull %2)
  %6 = load i32, i32* %2, align 4, !tbaa !5
  %7 = icmp sgt i32 %6, 0
  br i1 %7, label %10, label %39

8:                                                ; preds = %10
  %9 = icmp sgt i32 %15, 0
  br i1 %9, label %18, label %39

10:                                               ; preds = %0, %10
  %11 = phi i64 [ %14, %10 ], [ 0, %0 ]
  %12 = getelementptr inbounds [50 x [15 x i8]], [50 x [15 x i8]]* %1, i64 0, i64 %11, i64 0
  %13 = call i32 (i8*, ...) bitcast (i32 (...)* @gets to i32 (i8*, ...)*)(i8* nonnull %12) #6
  %14 = add nuw nsw i64 %11, 1
  %15 = load i32, i32* %2, align 4, !tbaa !5
  %16 = sext i32 %15 to i64
  %17 = icmp slt i64 %14, %16
  br i1 %17, label %10, label %8, !llvm.loop !9

18:                                               ; preds = %8, %33
  %19 = phi i64 [ %35, %33 ], [ 0, %8 ]
  %20 = getelementptr inbounds [50 x [15 x i8]], [50 x [15 x i8]]* %1, i64 0, i64 %19, i64 0
  %21 = call i64 @strlen(i8* noundef nonnull %20) #7
  %22 = shl i64 %21, 32
  %23 = add i64 %22, -4294967296
  %24 = ashr exact i64 %23, 32
  %25 = getelementptr inbounds [50 x [15 x i8]], [50 x [15 x i8]]* %1, i64 0, i64 %19, i64 %24
  %26 = load i8, i8* %25, align 1, !tbaa !11
  switch i8 %26, label %33 [
    i8 114, label %28
    i8 121, label %28
    i8 103, label %27
  ]

27:                                               ; preds = %18
  br label %28

28:                                               ; preds = %18, %18, %27
  %29 = phi i64 [ -12884901888, %27 ], [ -8589934592, %18 ], [ -8589934592, %18 ]
  %30 = add i64 %22, %29
  %31 = ashr exact i64 %30, 32
  %32 = getelementptr inbounds [50 x [15 x i8]], [50 x [15 x i8]]* %1, i64 0, i64 %19, i64 %31
  store i8 0, i8* %32, align 1, !tbaa !11
  br label %33

33:                                               ; preds = %28, %18
  %34 = call i32 @puts(i8* nonnull %20)
  %35 = add nuw nsw i64 %19, 1
  %36 = load i32, i32* %2, align 4, !tbaa !5
  %37 = sext i32 %36 to i64
  %38 = icmp slt i64 %35, %37
  br i1 %38, label %18, label %39, !llvm.loop !12

39:                                               ; preds = %33, %0, %8
  call void @llvm.lifetime.end.p0i8(i64 4, i8* nonnull %4) #6
  call void @llvm.lifetime.end.p0i8(i64 750, i8* nonnull %3) #6
  ret void
}

; Function Attrs: argmemonly mustprogress nofree nosync nounwind willreturn
declare void @llvm.lifetime.start.p0i8(i64 immarg, i8* nocapture) #1

; Function Attrs: nofree nounwind
declare noundef i32 @__isoc99_scanf(i8* nocapture noundef readonly, ...) local_unnamed_addr #2

declare i32 @gets(...) local_unnamed_addr #3

; Function Attrs: argmemonly mustprogress nofree nounwind readonly willreturn
declare i64 @strlen(i8* nocapture) local_unnamed_addr #4

; Function Attrs: argmemonly mustprogress nofree nosync nounwind willreturn
declare void @llvm.lifetime.end.p0i8(i64 immarg, i8* nocapture) #1

; Function Attrs: nofree nounwind
declare noundef i32 @puts(i8* nocapture noundef readonly) local_unnamed_addr #5


!llvm.module.flags = !{!0, !1, !2, !3}
!llvm.ident = !{!4}

!0 = !{i32 1, !"wchar_size", i32 4}
!1 = !{i32 7, !"PIC Level", i32 2}
!2 = !{i32 7, !"PIE Level", i32 2}
!3 = !{i32 7, !"uwtable", i32 1}
!4 = !{!"clang version 13.0.0"}
!5 = !{!6, !6, i64 0}
!6 = !{!"int", !7, i64 0}
!7 = !{!"omnipotent char", !8, i64 0}
!8 = !{!"Simple C/C++ TBAA"}
!9 = distinct !{!9, !10}
!10 = !{!"llvm.loop.mustprogress"}
!11 = !{!7, !7, i64 0}
!12 = distinct !{!12, !10}
